target datalayout = "e-m:e-p270:32:32-p271:32:32-p272:64:64-i64:64-i128:128-f80:128-n8:16:32:64-S128"
target triple = "x86_64-pc-linux-gnu"

%struct.sct_ctx_st = type { ptr, ptr, i64, ptr, i64, ptr, i64, ptr, i64, i64, ptr, ptr }

; Function Attrs: nounwind uwtable
define i32 @SCT_CTX_set1_issuer_pubkey(ptr noundef %0, ptr noundef %1) #0 {
  %3 = alloca ptr, align 8
  %4 = alloca ptr, align 8
  store ptr %0, ptr %3, align 8, !tbaa !10
  store ptr %1, ptr %4, align 8, !tbaa !34
  %5 = load ptr, ptr %3, align 8, !tbaa !10
  %6 = load ptr, ptr %4, align 8, !tbaa !34
  %7 = load ptr, ptr %3, align 8, !tbaa !10
  %8 = getelementptr inbounds nuw %struct.sct_ctx_st, ptr %7, i32 0, i32 3
  %9 = load ptr, ptr %3, align 8, !tbaa !10
  %10 = getelementptr inbounds nuw %struct.sct_ctx_st, ptr %9, i32 0, i32 4
  %11 = call i32 @ct_public_key_hash(ptr noundef %5, ptr noundef %6, ptr noundef %8, ptr noundef %10)
  ret i32 %11
}