; Function Attrs: nounwind uwtable
define range(i32 0, 2) i32 @SCT_CTX_set1_issuer_pubkey(ptr noundef captures(none) %0, ptr noundef %1) local_unnamed_addr #0 {
  %3 = getelementptr inbounds nuw i8, ptr %0, i64 24
  %4 = getelementptr inbounds nuw i8, ptr %0, i64 32
  %5 = getelementptr i8, ptr %0, i64 80
  %.val = load ptr, ptr %5, align 8, !tbaa !3
  %6 = getelementptr i8, ptr %0, i64 88
  %.val4 = load ptr, ptr %6, align 8, !tbaa !12
  %7 = tail call fastcc i32 @ct_public_key_hash(ptr %.val, ptr %.val4, ptr noundef %1, ptr noundef nonnull %3, ptr noundef nonnull %4)
  ret i32 %7
}